target datalayout = "e-m:e-p270:32:32-p271:32:32-p272:64:64-i64:64-i128:128-f80:128-n8:16:32:64-S128"
target triple = "x86_64-pc-linux-gnu"

; Function Attrs: mustprogress nounwind uwtable
define internal noundef i32 @_ZL9real_compPKvS0_(ptr noundef %0, ptr noundef %1) #4 {
  %3 = alloca i32, align 4
  %4 = alloca ptr, align 8
  %5 = alloca ptr, align 8
  %6 = alloca float, align 4
  %7 = alloca i32, align 4
  store ptr %0, ptr %4, align 8, !tbaa !24
  store ptr %1, ptr %5, align 8, !tbaa !24
  call void @llvm.lifetime.start.p0(i64 4, ptr %6) #16
  %8 = load ptr, ptr %4, align 8, !tbaa !24
  %9 = load float, ptr %8, align 4, !tbaa !30
  %10 = load ptr, ptr %5, align 8, !tbaa !24
  %11 = load float, ptr %10, align 4, !tbaa !30
  %12 = fsub float %9, %11
  store float %12, ptr %6, align 4, !tbaa !30
  %13 = load float, ptr %6, align 4, !tbaa !30
  %14 = fcmp olt float %13, 0.000000e+00
  br i1 %14, label %15, label %16

15:                                               ; preds = %2
  store i32 -1, ptr %3, align 4
  store i32 1, ptr %7, align 4
  br label %21

16:                                               ; preds = %2
  %17 = load float, ptr %6, align 4, !tbaa !30
  %18 = fcmp ogt float %17, 0.000000e+00
  br i1 %18, label %19, label %20

19:                                               ; preds = %16
  store i32 1, ptr %3, align 4
  store i32 1, ptr %7, align 4
  br label %21

20:                                               ; preds = %16
  store i32 0, ptr %3, align 4
  store i32 1, ptr %7, align 4
  br label %21

21:                                               ; preds = %20, %19, %15
  call void @llvm.lifetime.end.p0(i64 4, ptr %6) #16
  %22 = load i32, ptr %3, align 4
  ret i32 %22
}