; Function Attrs: mustprogress nofree norecurse nosync nounwind willreturn memory(argmem: read) uwtable
define internal noundef range(i32 -1, 2) i32 @_ZL9real_compPKvS0_(ptr noundef readonly captures(none) %0, ptr noundef readonly captures(none) %1) #17 {
  %3 = load float, ptr %0, align 4, !tbaa !26
  %4 = load float, ptr %1, align 4, !tbaa !26
  %5 = fsub float %3, %4
  %6 = fcmp olt float %5, 0.000000e+00
  %7 = fcmp ogt float %5, 0.000000e+00
  %. = zext i1 %7 to i32
  %.0 = select i1 %6, i32 -1, i32 %.
  ret i32 %.0
}